; Function Attrs: mustprogress nofree norecurse nosync nounwind willreturn memory(argmem: write) uwtable
define hidden void @_ZN2cv5GNode4PrivC2ENS1_8ParamTagE(ptr noundef nonnull align 8 dereferenceable(64) initializes((0, 4), (8, 16)) %0) unnamed_addr #3 align 2 personality ptr @__gxx_personality_v0 {
  store i32 2, ptr %0, align 8, !tbaa !3
  %2 = getelementptr inbounds nuw i8, ptr %0, i64 8
  store i64 0, ptr %2, align 8, !tbaa !14
  %3 = getelementptr inbounds nuw i8, ptr %0, i64 32
  %4 = getelementptr inbounds nuw i8, ptr %0, i64 48
  store ptr %4, ptr %3, align 8, !tbaa !15
  %5 = getelementptr inbounds nuw i8, ptr %0, i64 40
  store i64 0, ptr %5, align 8, !tbaa !16
  store i8 0, ptr %4, align 8, !tbaa !17
  ret void
}